; Function Attrs: nounwind sspstrong uwtable
define internal void @mark_load_arg(ptr noundef readonly captures(none) %0) #0 {
  %2 = getelementptr inbounds nuw i8, ptr %0, i64 40
  %3 = load ptr, ptr %2, align 8, !tbaa !47
  %.not = icmp eq ptr %3, null
  br i1 %.not, label %11, label %4

4:                                                ; preds = %1
  tail call void @rb_mark_tbl(ptr noundef nonnull %3) #22
  %5 = getelementptr inbounds nuw i8, ptr %0, i64 48
  %6 = load ptr, ptr %5, align 8, !tbaa !48
  tail call void @rb_mark_tbl(ptr noundef %6) #22
  %7 = getelementptr inbounds nuw i8, ptr %0, i64 56
  %8 = load ptr, ptr %7, align 8, !tbaa !49
  tail call void @rb_mark_tbl(ptr noundef %8) #22
  %9 = getelementptr inbounds nuw i8, ptr %0, i64 72
  %10 = load ptr, ptr %9, align 8, !tbaa !54
  tail call void @rb_mark_hash(ptr noundef %10) #22
  br label %11

11:                                               ; preds = %1, %4
  ret void
}